; Function Attrs: nounwind sspstrong uwtable
define dso_local i32 @rb_waitpid(i32 noundef %0, ptr noundef writeonly captures(address_is_null) %1, i32 noundef %2) local_unnamed_addr #1 {
  %4 = tail call i64 @rb_process_status_wait(i32 noundef %0, i32 noundef %2)
  %5 = icmp eq i64 %4, 4
  br i1 %5, label %23, label %6

6:                                                ; preds = %3
  %7 = tail call ptr @rb_check_typeddata(i64 noundef %4, ptr noundef nonnull @rb_process_status_type) #27
  %8 = load i32, ptr %7, align 4, !tbaa !49
  %.not = icmp eq ptr %1, null
  br i1 %.not, label %12, label %9

9:                                                ; preds = %6
  %10 = getelementptr inbounds nuw i8, ptr %7, i64 4
  %11 = load i32, ptr %10, align 4, !tbaa !51
  store i32 %11, ptr %1, align 4, !tbaa !60
  br label %12

12:                                               ; preds = %9, %6
  %13 = icmp eq i32 %8, -1
  br i1 %13, label %14, label %18

14:                                               ; preds = %12
  %15 = getelementptr inbounds nuw i8, ptr %7, i64 8
  %16 = load i32, ptr %15, align 4, !tbaa !52
  %17 = tail call ptr @rb_errno_ptr() #27
  store i32 %16, ptr %17, align 4, !tbaa !60
  br label %23

18:                                               ; preds = %12
  %19 = tail call align 8 ptr @llvm.threadlocal.address.p0(ptr align 8 @ruby_current_ec)
  %20 = load ptr, ptr %19, align 8, !tbaa !7
  %21 = getelementptr i8, ptr %20, i64 48
  %.val.i = load ptr, ptr %21, align 8, !tbaa !12
  %22 = getelementptr inbounds nuw i8, ptr %.val.i, i64 208
  store i64 %4, ptr %22, align 8, !tbaa !24
  br label %23

23:                                               ; preds = %14, %18, %3
  %.0 = phi i32 [ 0, %3 ], [ %8, %18 ], [ -1, %14 ]
  ret i32 %.0
}